target datalayout = "e-m:e-p270:32:32-p271:32:32-p272:64:64-i64:64-i128:128-f80:128-n8:16:32:64-S128"
target triple = "x86_64-pc-linux-gnu"

%struct.evhttp_connection = type { %struct.anon, ptr, %struct.event, ptr, i16, ptr, i16, ptr, i64, i64, i32, %struct.timeval, %struct.timeval, %struct.timeval, i32, i32, %struct.timeval, i32, ptr, %struct.evcon_requestq, ptr, ptr, ptr, ptr, %struct.event_callback, ptr, ptr, i32, ptr }
%struct.anon = type { ptr, ptr }
%struct.event = type { %struct.event_callback, %union.anon.1, i32, i16, i16, ptr, %union.anon.3, %struct.timeval }
%union.anon.1 = type { %struct.anon.2 }
%struct.anon.2 = type { ptr, ptr }
%union.anon.3 = type { %struct.anon.4 }
%struct.anon.4 = type { %struct.anon.5, %struct.timeval }
%struct.anon.5 = type { ptr, ptr }
%struct.timeval = type { i64, i64 }
%struct.evcon_requestq = type { ptr, ptr }
%struct.event_callback = type { %struct.anon.0, i16, i8, i8, %union.anon, ptr }
%struct.anon.0 = type { ptr, ptr }
%union.anon = type { ptr }
%struct.evhttp_request = type { %struct.anon.8, ptr, i32, ptr, ptr, ptr, i16, ptr, i32, i32, i64, i64, ptr, ptr, i8, i8, i32, ptr, ptr, i64, i8, ptr, ptr, ptr, ptr, ptr, ptr, ptr, ptr }
%struct.anon.8 = type { ptr, ptr }
%struct.evhttp = type { %struct.anon.9, %struct.boundq, %struct.httpcbq, %struct.evconq, %struct.evwsq, i32, i32, %struct.vhostsq, %struct.aliasq, ptr, %struct.timeval, %struct.timeval, i64, i64, i32, ptr, i32, ptr, ptr, ptr, ptr, ptr, ptr, ptr, ptr, ptr, ptr }
%struct.anon.9 = type { ptr, ptr }
%struct.boundq = type { ptr, ptr }
%struct.httpcbq = type { ptr, ptr }
%struct.evconq = type { ptr, ptr }
%struct.evwsq = type { ptr, ptr }
%struct.vhostsq = type { ptr, ptr }
%struct.aliasq = type { ptr, ptr }

@.str.2 = private unnamed_addr constant [11 x i8] c"%s: strdup\00", align 1
@__func__.evhttp_associate_new_request_with_connection = private unnamed_addr constant [45 x i8] c"evhttp_associate_new_request_with_connection\00", align 1

; Function Attrs: nounwind uwtable
define internal i32 @evhttp_associate_new_request_with_connection(ptr noundef %0) #0 {
  %2 = alloca i32, align 4
  %3 = alloca ptr, align 8
  %4 = alloca ptr, align 8
  %5 = alloca ptr, align 8
  %6 = alloca i32, align 4
  store ptr %0, ptr %3, align 8
  call void @llvm.lifetime.start.p0(i64 8, ptr %4) #11
  %7 = load ptr, ptr %3, align 8
  %8 = getelementptr inbounds nuw %struct.evhttp_connection, ptr %7, i32 0, i32 18
  %9 = load ptr, ptr %8, align 8
  store ptr %9, ptr %4, align 8
  call void @llvm.lifetime.start.p0(i64 8, ptr %5) #11
  %10 = load ptr, ptr %4, align 8
  %11 = call ptr @evhttp_request_new(ptr noundef @evhttp_handle_request, ptr noundef %10)
  store ptr %11, ptr %5, align 8
  %12 = icmp eq ptr %11, null
  br i1 %12, label %13, label %14

13:                                               ; preds = %1
  store i32 -1, ptr %2, align 4
  store i32 1, ptr %6, align 4
  br label %92

14:                                               ; preds = %1
  %15 = load ptr, ptr %3, align 8
  %16 = getelementptr inbounds nuw %struct.evhttp_connection, ptr %15, i32 0, i32 5
  %17 = load ptr, ptr %16, align 8
  %18 = icmp ne ptr %17, null
  br i1 %18, label %19, label %30

19:                                               ; preds = %14
  %20 = load ptr, ptr %3, align 8
  %21 = getelementptr inbounds nuw %struct.evhttp_connection, ptr %20, i32 0, i32 5
  %22 = load ptr, ptr %21, align 8
  %23 = call ptr @event_mm_strdup_(ptr noundef %22)
  %24 = load ptr, ptr %5, align 8
  %25 = getelementptr inbounds nuw %struct.evhttp_request, ptr %24, i32 0, i32 5
  store ptr %23, ptr %25, align 8
  %26 = icmp eq ptr %23, null
  br i1 %26, label %27, label %29

27:                                               ; preds = %19
  call void (ptr, ...) @event_warn(ptr noundef @.str.2, ptr noundef @__func__.evhttp_associate_new_request_with_connection)
  %28 = load ptr, ptr %5, align 8
  call void @evhttp_request_free(ptr noundef %28)
  store i32 -1, ptr %2, align 4
  store i32 1, ptr %6, align 4
  br label %92

29:                                               ; preds = %19
  br label %30

30:                                               ; preds = %29, %14
  %31 = load ptr, ptr %3, align 8
  %32 = getelementptr inbounds nuw %struct.evhttp_connection, ptr %31, i32 0, i32 6
  %33 = load i16, ptr %32, align 8
  %34 = load ptr, ptr %5, align 8
  %35 = getelementptr inbounds nuw %struct.evhttp_request, ptr %34, i32 0, i32 6
  store i16 %33, ptr %35, align 8
  %36 = load ptr, ptr %3, align 8
  %37 = load ptr, ptr %5, align 8
  %38 = getelementptr inbounds nuw %struct.evhttp_request, ptr %37, i32 0, i32 1
  store ptr %36, ptr %38, align 8
  %39 = load ptr, ptr %5, align 8
  %40 = getelementptr inbounds nuw %struct.evhttp_request, ptr %39, i32 0, i32 2
  %41 = load i32, ptr %40, align 8
  %42 = or i32 %41, 1
  store i32 %42, ptr %40, align 8
  %43 = load ptr, ptr %5, align 8
  %44 = getelementptr inbounds nuw %struct.evhttp_request, ptr %43, i32 0, i32 20
  %45 = load i8, ptr %44, align 8
  %46 = and i8 %45, -3
  %47 = or i8 %46, 2
  store i8 %47, ptr %44, align 8
  %48 = load ptr, ptr %5, align 8
  %49 = getelementptr inbounds nuw %struct.evhttp_request, ptr %48, i32 0, i32 8
  store i32 0, ptr %49, align 8
  %50 = load ptr, ptr %4, align 8
  %51 = getelementptr inbounds nuw %struct.evhttp, ptr %50, i32 0, i32 21
  %52 = load ptr, ptr %51, align 8
  %53 = icmp ne ptr %52, null
  br i1 %53, label %54, label %66

54:                                               ; preds = %30
  %55 = load ptr, ptr %4, align 8
  %56 = getelementptr inbounds nuw %struct.evhttp, ptr %55, i32 0, i32 21
  %57 = load ptr, ptr %56, align 8
  %58 = load ptr, ptr %5, align 8
  %59 = load ptr, ptr %4, align 8
  %60 = getelementptr inbounds nuw %struct.evhttp, ptr %59, i32 0, i32 22
  %61 = load ptr, ptr %60, align 8
  %62 = call i32 %57(ptr noundef %58, ptr noundef %61)
  %63 = icmp eq i32 %62, -1
  br i1 %63, label %64, label %66

64:                                               ; preds = %54
  %65 = load ptr, ptr %5, align 8
  call void @evhttp_request_free(ptr noundef %65)
  store i32 -1, ptr %2, align 4
  store i32 1, ptr %6, align 4
  br label %92

66:                                               ; preds = %54, %30
  br label %67

67:                                               ; preds = %66
  %68 = load ptr, ptr %5, align 8
  %69 = getelementptr inbounds nuw %struct.evhttp_request, ptr %68, i32 0, i32 0
  %70 = getelementptr inbounds nuw %struct.anon.8, ptr %69, i32 0, i32 0
  store ptr null, ptr %70, align 8
  %71 = load ptr, ptr %3, align 8
  %72 = getelementptr inbounds nuw %struct.evhttp_connection, ptr %71, i32 0, i32 19
  %73 = getelementptr inbounds nuw %struct.evcon_requestq, ptr %72, i32 0, i32 1
  %74 = load ptr, ptr %73, align 8
  %75 = load ptr, ptr %5, align 8
  %76 = getelementptr inbounds nuw %struct.evhttp_request, ptr %75, i32 0, i32 0
  %77 = getelementptr inbounds nuw %struct.anon.8, ptr %76, i32 0, i32 1
  store ptr %74, ptr %77, align 8
  %78 = load ptr, ptr %5, align 8
  %79 = load ptr, ptr %3, align 8
  %80 = getelementptr inbounds nuw %struct.evhttp_connection, ptr %79, i32 0, i32 19
  %81 = getelementptr inbounds nuw %struct.evcon_requestq, ptr %80, i32 0, i32 1
  %82 = load ptr, ptr %81, align 8
  store ptr %78, ptr %82, align 8
  %83 = load ptr, ptr %5, align 8
  %84 = getelementptr inbounds nuw %struct.evhttp_request, ptr %83, i32 0, i32 0
  %85 = getelementptr inbounds nuw %struct.anon.8, ptr %84, i32 0, i32 0
  %86 = load ptr, ptr %3, align 8
  %87 = getelementptr inbounds nuw %struct.evhttp_connection, ptr %86, i32 0, i32 19
  %88 = getelementptr inbounds nuw %struct.evcon_requestq, ptr %87, i32 0, i32 1
  store ptr %85, ptr %88, align 8
  br label %89

89:                                               ; preds = %67
  br label %90

90:                                               ; preds = %89
  %91 = load ptr, ptr %3, align 8
  call void @evhttp_start_read_(ptr noundef %91)
  store i32 0, ptr %2, align 4
  store i32 1, ptr %6, align 4
  br label %92

92:                                               ; preds = %90, %64, %27, %13
  call void @llvm.lifetime.end.p0(i64 8, ptr %5) #11
  call void @llvm.lifetime.end.p0(i64 8, ptr %4) #11
  %93 = load i32, ptr %2, align 4
  ret i32 %93
}