; Function Attrs: nounwind uwtable
define internal fastcc range(i32 -1, 1) i32 @evhttp_associate_new_request_with_connection(ptr noundef %0) unnamed_addr #0 {
  %2 = getelementptr inbounds nuw i8, ptr %0, i64 288
  %3 = load ptr, ptr %2, align 8
  %4 = tail call ptr @evhttp_request_new(ptr noundef nonnull @evhttp_handle_request, ptr noundef %3)
  %5 = icmp eq ptr %4, null
  br i1 %5, label %38, label %6

6:                                                ; preds = %1
  %7 = getelementptr inbounds nuw i8, ptr %0, i64 160
  %8 = load ptr, ptr %7, align 8
  %.not = icmp eq ptr %8, null
  br i1 %.not, label %14, label %9

9:                                                ; preds = %6
  %10 = tail call ptr @event_mm_strdup_(ptr noundef nonnull %8) #18
  %11 = getelementptr inbounds nuw i8, ptr %4, i64 48
  store ptr %10, ptr %11, align 8
  %12 = icmp eq ptr %10, null
  br i1 %12, label %13, label %14

13:                                               ; preds = %9
  tail call void (ptr, ...) @event_warn(ptr noundef nonnull @.str.2, ptr noundef nonnull @__func__.evhttp_associate_new_request_with_connection) #18
  tail call void @evhttp_request_free(ptr noundef nonnull %4)
  br label %38

14:                                               ; preds = %9, %6
  %15 = getelementptr inbounds nuw i8, ptr %0, i64 168
  %16 = load i16, ptr %15, align 8
  %17 = getelementptr inbounds nuw i8, ptr %4, i64 56
  store i16 %16, ptr %17, align 8
  %18 = getelementptr inbounds nuw i8, ptr %4, i64 16
  store ptr %0, ptr %18, align 8
  %19 = getelementptr inbounds nuw i8, ptr %4, i64 24
  %20 = load i32, ptr %19, align 8
  %21 = or i32 %20, 1
  store i32 %21, ptr %19, align 8
  %22 = getelementptr inbounds nuw i8, ptr %4, i64 144
  %23 = load i8, ptr %22, align 8
  %24 = or i8 %23, 2
  store i8 %24, ptr %22, align 8
  %25 = getelementptr inbounds nuw i8, ptr %4, i64 72
  store i32 0, ptr %25, align 8
  %26 = getelementptr inbounds nuw i8, ptr %3, i64 232
  %27 = load ptr, ptr %26, align 8
  %.not29 = icmp eq ptr %27, null
  br i1 %.not29, label %34, label %28

28:                                               ; preds = %14
  %29 = getelementptr inbounds nuw i8, ptr %3, i64 240
  %30 = load ptr, ptr %29, align 8
  %31 = tail call i32 %27(ptr noundef nonnull %4, ptr noundef %30) #18
  %32 = icmp eq i32 %31, -1
  br i1 %32, label %33, label %34

33:                                               ; preds = %28
  tail call void @evhttp_request_free(ptr noundef nonnull %4)
  br label %38

34:                                               ; preds = %14, %28
  store ptr null, ptr %4, align 8
  %35 = getelementptr inbounds nuw i8, ptr %0, i64 304
  %36 = load ptr, ptr %35, align 8
  %37 = getelementptr inbounds nuw i8, ptr %4, i64 8
  store ptr %36, ptr %37, align 8
  store ptr %4, ptr %36, align 8
  store ptr %4, ptr %35, align 8
  tail call void @evhttp_start_read_(ptr noundef nonnull %0)
  br label %38

38:                                               ; preds = %1, %34, %33, %13
  %.0 = phi i32 [ -1, %13 ], [ -1, %33 ], [ 0, %34 ], [ -1, %1 ]
  ret i32 %.0
}